target datalayout = "e-m:e-p270:32:32-p271:32:32-p272:64:64-i64:64-i128:128-f80:128-n8:16:32:64-S128"
target triple = "x86_64-pc-linux-gnu"

@sclip1 = internal constant [2041 x i8] c"\80\80\80\80\80\80\80\80\80\80\80\80\80\80\80\80\80\80\80\80\80\80\80\80\80\80\80\80\80\80\80\80\80\80\80\80\80\80\80\80\80\80\80\80\80\80\80\80\80\80\80\80\80\80\80\80\80\80\80\80\80\80\80\80\80\80\80\80\80\80\80\80\80\80\80\80\80\80\80\80\80\80\80\80\80\80\80\80\80\80\80\80\80\80\80\80\80\80\80\80\80\80\80\80\80\80\80\80\80\80\80\80\80\80\80\80\80\80\80\80\80\80\80\80\80\80\80\80\80\80\80\80\80\80\80\80\80\80\80\80\80\80\80\80\80\80\80\80\80\80\80\80\80\80\80\80\80\80\80\80\80\80\80\80\80\80\80\80\80\80\80\80\80\80\80\80\80\80\80\80\80\80\80\80\80\80\80\80\80\80\80\80\80\80\80\80\80\80\80\80\80\80\80\80\80\80\80\80\80\80\80\80\80\80\80\80\80\80\80\80\80\80\80\80\80\80\80\80\80\80\80\80\80\80\80\80\80\80\80\80\80\80\80\80\80\80\80\80\80\80\80\80\80\80\80\80\80\80\80\80\80\80\80\80\80\80\80\80\80\80\80\80\80\80\80\80\80\80\80\80\80\80\80\80\80\80\80\80\80\80\80\80\80\80\80\80\80\80\80\80\80\80\80\80\80\80\80\80\80\80\80\80\80\80\80\80\80\80\80\80\80\80\80\80\80\80\80\80\80\80\80\80\80\80\80\80\80\80\80\80\80\80\80\80\80\80\80\80\80\80\80\80\80\80\80\80\80\80\80\80\80\80\80\80\80\80\80\80\80\80\80\80\80\80\80\80\80\80\80\80\80\80\80\80\80\80\80\80\80\80\80\80\80\80\80\80\80\80\80\80\80\80\80\80\80\80\80\80\80\80\80\80\80\80\80\80\80\80\80\80\80\80\80\80\80\80\80\80\80\80\80\80\80\80\80\80\80\80\80\80\80\80\80\80\80\80\80\80\80\80\80\80\80\80\80\80\80\80\80\80\80\80\80\80\80\80\80\80\80\80\80\80\80\80\80\80\80\80\80\80\80\80\80\80\80\80\80\80\80\80\80\80\80\80\80\80\80\80\80\80\80\80\80\80\80\80\80\80\80\80\80\80\80\80\80\80\80\80\80\80\80\80\80\80\80\80\80\80\80\80\80\80\80\80\80\80\80\80\80\80\80\80\80\80\80\80\80\80\80\80\80\80\80\80\80\80\80\80\80\80\80\80\80\80\80\80\80\80\80\80\80\80\80\80\80\80\80\80\80\80\80\80\80\80\80\80\80\80\80\80\80\80\80\80\80\80\80\80\80\80\80\80\80\80\80\80\80\80\80\80\80\80\80\80\80\80\80\80\80\80\80\80\80\80\80\80\80\80\80\80\80\80\80\80\80\80\80\80\80\80\80\80\80\80\80\80\80\80\80\80\80\80\80\80\80\80\80\80\80\80\80\80\80\80\80\80\80\80\80\80\80\80\80\80\80\80\80\80\80\80\80\80\80\80\80\80\80\80\80\80\80\80\80\80\80\80\80\80\80\80\80\80\80\80\80\80\80\80\80\80\80\80\80\80\80\80\80\80\80\80\80\80\80\80\80\80\80\80\80\80\80\80\80\80\80\80\80\80\80\80\80\80\80\80\80\80\80\80\80\80\80\80\80\80\80\80\80\80\80\80\80\80\80\80\80\80\80\80\80\80\80\80\80\80\80\80\80\80\80\80\80\80\80\80\80\80\80\80\80\80\80\80\80\80\80\80\80\80\80\80\80\80\80\80\80\80\80\80\80\80\80\80\80\80\80\80\80\80\80\80\80\80\80\80\80\80\80\80\80\80\80\80\80\80\80\80\80\80\80\80\80\80\80\80\80\80\80\80\80\80\80\80\80\80\80\80\80\80\80\80\80\80\80\80\80\80\80\80\80\80\80\80\80\80\80\80\80\80\80\80\80\80\80\80\80\80\80\80\80\80\80\80\80\81\82\83\84\85\86\87\88\89\8A\8B\8C\8D\8E\8F\90\91\92\93\94\95\96\97\98\99\9A\9B\9C\9D\9E\9F\A0\A1\A2\A3\A4\A5\A6\A7\A8\A9\AA\AB\AC\AD\AE\AF\B0\B1\B2\B3\B4\B5\B6\B7\B8\B9\BA\BB\BC\BD\BE\BF\C0\C1\C2\C3\C4\C5\C6\C7\C8\C9\CA\CB\CC\CD\CE\CF\D0\D1\D2\D3\D4\D5\D6\D7\D8\D9\DA\DB\DC\DD\DE\DF\E0\E1\E2\E3\E4\E5\E6\E7\E8\E9\EA\EB\EC\ED\EE\EF\F0\F1\F2\F3\F4\F5\F6\F7\F8\F9\FA\FB\FC\FD\FE\FF\00\01\02\03\04\05\06\07\08\09\0A\0B\0C\0D\0E\0F\10\11\12\13\14\15\16\17\18\19\1A\1B\1C\1D\1E\1F !\22#$%&'()*+,-./0123456789:;<=>?@ABCDEFGHIJKLMNOPQRSTUVWXYZ[\\]^_`abcdefghijklmnopqrstuvwxyz{|}~\7F\7F\7F\7F\7F\7F\7F\7F\7F\7F\7F\7F\7F\7F\7F\7F\7F\7F\7F\7F\7F\7F\7F\7F\7F\7F\7F\7F\7F\7F\7F\7F\7F\7F\7F\7F\7F\7F\7F\7F\7F\7F\7F\7F\7F\7F\7F\7F\7F\7F\7F\7F\7F\7F\7F\7F\7F\7F\7F\7F\7F\7F\7F\7F\7F\7F\7F\7F\7F\7F\7F\7F\7F\7F\7F\7F\7F\7F\7F\7F\7F\7F\7F\7F\7F\7F\7F\7F\7F\7F\7F\7F\7F\7F\7F\7F\7F\7F\7F\7F\7F\7F\7F\7F\7F\7F\7F\7F\7F\7F\7F\7F\7F\7F\7F\7F\7F\7F\7F\7F\7F\7F\7F\7F\7F\7F\7F\7F\7F\7F\7F\7F\7F\7F\7F\7F\7F\7F\7F\7F\7F\7F\7F\7F\7F\7F\7F\7F\7F\7F\7F\7F\7F\7F\7F\7F\7F\7F\7F\7F\7F\7F\7F\7F\7F\7F\7F\7F\7F\7F\7F\7F\7F\7F\7F\7F\7F\7F\7F\7F\7F\7F\7F\7F\7F\7F\7F\7F\7F\7F\7F\7F\7F\7F\7F\7F\7F\7F\7F\7F\7F\7F\7F\7F\7F\7F\7F\7F\7F\7F\7F\7F\7F\7F\7F\7F\7F\7F\7F\7F\7F\7F\7F\7F\7F\7F\7F\7F\7F\7F\7F\7F\7F\7F\7F\7F\7F\7F\7F\7F\7F\7F\7F\7F\7F\7F\7F\7F\7F\7F\7F\7F\7F\7F\7F\7F\7F\7F\7F\7F\7F\7F\7F\7F\7F\7F\7F\7F\7F\7F\7F\7F\7F\7F\7F\7F\7F\7F\7F\7F\7F\7F\7F\7F\7F\7F\7F\7F\7F\7F\7F\7F\7F\7F\7F\7F\7F\7F\7F\7F\7F\7F\7F\7F\7F\7F\7F\7F\7F\7F\7F\7F\7F\7F\7F\7F\7F\7F\7F\7F\7F\7F\7F\7F\7F\7F\7F\7F\7F\7F\7F\7F\7F\7F\7F\7F\7F\7F\7F\7F\7F\7F\7F\7F\7F\7F\7F\7F\7F\7F\7F\7F\7F\7F\7F\7F\7F\7F\7F\7F\7F\7F\7F\7F\7F\7F\7F\7F\7F\7F\7F\7F\7F\7F\7F\7F\7F\7F\7F\7F\7F\7F\7F\7F\7F\7F\7F\7F\7F\7F\7F\7F\7F\7F\7F\7F\7F\7F\7F\7F\7F\7F\7F\7F\7F\7F\7F\7F\7F\7F\7F\7F\7F\7F\7F\7F\7F\7F\7F\7F\7F\7F\7F\7F\7F\7F\7F\7F\7F\7F\7F\7F\7F\7F\7F\7F\7F\7F\7F\7F\7F\7F\7F\7F\7F\7F\7F\7F\7F\7F\7F\7F\7F\7F\7F\7F\7F\7F\7F\7F\7F\7F\7F\7F\7F\7F\7F\7F\7F\7F\7F\7F\7F\7F\7F\7F\7F\7F\7F\7F\7F\7F\7F\7F\7F\7F\7F\7F\7F\7F\7F\7F\7F\7F\7F\7F\7F\7F\7F\7F\7F\7F\7F\7F\7F\7F\7F\7F\7F\7F\7F\7F\7F\7F\7F\7F\7F\7F\7F\7F\7F\7F\7F\7F\7F\7F\7F\7F\7F\7F\7F\7F\7F\7F\7F\7F\7F\7F\7F\7F\7F\7F\7F\7F\7F\7F\7F\7F\7F\7F\7F\7F\7F\7F\7F\7F\7F\7F\7F\7F\7F\7F\7F\7F\7F\7F\7F\7F\7F\7F\7F\7F\7F\7F\7F\7F\7F\7F\7F\7F\7F\7F\7F\7F\7F\7F\7F\7F\7F\7F\7F\7F\7F\7F\7F\7F\7F\7F\7F\7F\7F\7F\7F\7F\7F\7F\7F\7F\7F\7F\7F\7F\7F\7F\7F\7F\7F\7F\7F\7F\7F\7F\7F\7F\7F\7F\7F\7F\7F\7F\7F\7F\7F\7F\7F\7F\7F\7F\7F\7F\7F\7F\7F\7F\7F\7F\7F\7F\7F\7F\7F\7F\7F\7F\7F\7F\7F\7F\7F\7F\7F\7F\7F\7F\7F\7F\7F\7F\7F\7F\7F\7F\7F\7F\7F\7F\7F\7F\7F\7F\7F\7F\7F\7F\7F\7F\7F\7F\7F\7F\7F\7F\7F\7F\7F\7F\7F\7F\7F\7F\7F\7F\7F\7F\7F\7F\7F\7F\7F\7F\7F\7F\7F\7F\7F\7F\7F\7F\7F\7F\7F\7F\7F\7F\7F\7F\7F\7F\7F\7F\7F\7F\7F\7F\7F\7F\7F\7F\7F\7F\7F\7F\7F\7F\7F\7F\7F\7F\7F\7F\7F\7F\7F\7F\7F\7F\7F\7F\7F\7F\7F\7F\7F\7F\7F\7F\7F\7F\7F\7F\7F\7F\7F\7F\7F\7F\7F\7F\7F\7F\7F\7F\7F\7F\7F\7F\7F\7F\7F\7F\7F\7F\7F\7F\7F\7F\7F\7F\7F\7F\7F\7F\7F\7F\7F\7F\7F\7F\7F\7F\7F\7F\7F\7F\7F\7F\7F\7F\7F\7F\7F\7F\7F\7F\7F\7F\7F\7F\7F\7F\7F\7F\7F\7F\7F\7F\7F\7F\7F\7F\7F\7F\7F\7F\7F\7F\7F\7F\7F\7F\7F\7F\7F\7F\7F\7F\7F\7F\7F\7F\7F\7F\7F\7F\7F\7F\7F\7F\7F\7F\7F\7F\7F\7F\7F\7F\7F\7F\7F\7F\7F\7F\7F\7F\7F\7F\7F\7F\7F\7F\7F\7F\7F\00", align 16
@VP8ksclip1 = hidden constant ptr getelementptr (i8, ptr @sclip1, i64 1020), align 8
@sclip2 = internal constant [225 x i8] c"\F0\F0\F0\F0\F0\F0\F0\F0\F0\F0\F0\F0\F0\F0\F0\F0\F0\F0\F0\F0\F0\F0\F0\F0\F0\F0\F0\F0\F0\F0\F0\F0\F0\F0\F0\F0\F0\F0\F0\F0\F0\F0\F0\F0\F0\F0\F0\F0\F0\F0\F0\F0\F0\F0\F0\F0\F0\F0\F0\F0\F0\F0\F0\F0\F0\F0\F0\F0\F0\F0\F0\F0\F0\F0\F0\F0\F0\F0\F0\F0\F0\F0\F0\F0\F0\F0\F0\F0\F0\F0\F0\F0\F0\F0\F0\F0\F0\F1\F2\F3\F4\F5\F6\F7\F8\F9\FA\FB\FC\FD\FE\FF\00\01\02\03\04\05\06\07\08\09\0A\0B\0C\0D\0E\0F\0F\0F\0F\0F\0F\0F\0F\0F\0F\0F\0F\0F\0F\0F\0F\0F\0F\0F\0F\0F\0F\0F\0F\0F\0F\0F\0F\0F\0F\0F\0F\0F\0F\0F\0F\0F\0F\0F\0F\0F\0F\0F\0F\0F\0F\0F\0F\0F\0F\0F\0F\0F\0F\0F\0F\0F\0F\0F\0F\0F\0F\0F\0F\0F\0F\0F\0F\0F\0F\0F\0F\0F\0F\0F\0F\0F\0F\0F\0F\0F\0F\0F\0F\0F\0F\0F\0F\0F\0F\0F\0F\0F\0F\0F\0F\0F\00", align 16
@VP8ksclip2 = hidden constant ptr getelementptr (i8, ptr @sclip2, i64 112), align 8
@clip1 = internal constant [767 x i8] c"\00\00\00\00\00\00\00\00\00\00\00\00\00\00\00\00\00\00\00\00\00\00\00\00\00\00\00\00\00\00\00\00\00\00\00\00\00\00\00\00\00\00\00\00\00\00\00\00\00\00\00\00\00\00\00\00\00\00\00\00\00\00\00\00\00\00\00\00\00\00\00\00\00\00\00\00\00\00\00\00\00\00\00\00\00\00\00\00\00\00\00\00\00\00\00\00\00\00\00\00\00\00\00\00\00\00\00\00\00\00\00\00\00\00\00\00\00\00\00\00\00\00\00\00\00\00\00\00\00\00\00\00\00\00\00\00\00\00\00\00\00\00\00\00\00\00\00\00\00\00\00\00\00\00\00\00\00\00\00\00\00\00\00\00\00\00\00\00\00\00\00\00\00\00\00\00\00\00\00\00\00\00\00\00\00\00\00\00\00\00\00\00\00\00\00\00\00\00\00\00\00\00\00\00\00\00\00\00\00\00\00\00\00\00\00\00\00\00\00\00\00\00\00\00\00\00\00\00\00\00\00\00\00\00\00\00\00\00\00\00\00\00\00\00\00\00\00\00\00\00\00\00\00\00\00\00\01\02\03\04\05\06\07\08\09\0A\0B\0C\0D\0E\0F\10\11\12\13\14\15\16\17\18\19\1A\1B\1C\1D\1E\1F !\22#$%&'()*+,-./0123456789:;<=>?@ABCDEFGHIJKLMNOPQRSTUVWXYZ[\\]^_`abcdefghijklmnopqrstuvwxyz{|}~\7F\80\81\82\83\84\85\86\87\88\89\8A\8B\8C\8D\8E\8F\90\91\92\93\94\95\96\97\98\99\9A\9B\9C\9D\9E\9F\A0\A1\A2\A3\A4\A5\A6\A7\A8\A9\AA\AB\AC\AD\AE\AF\B0\B1\B2\B3\B4\B5\B6\B7\B8\B9\BA\BB\BC\BD\BE\BF\C0\C1\C2\C3\C4\C5\C6\C7\C8\C9\CA\CB\CC\CD\CE\CF\D0\D1\D2\D3\D4\D5\D6\D7\D8\D9\DA\DB\DC\DD\DE\DF\E0\E1\E2\E3\E4\E5\E6\E7\E8\E9\EA\EB\EC\ED\EE\EF\F0\F1\F2\F3\F4\F5\F6\F7\F8\F9\FA\FB\FC\FD\FE\FF\FF\FF\FF\FF\FF\FF\FF\FF\FF\FF\FF\FF\FF\FF\FF\FF\FF\FF\FF\FF\FF\FF\FF\FF\FF\FF\FF\FF\FF\FF\FF\FF\FF\FF\FF\FF\FF\FF\FF\FF\FF\FF\FF\FF\FF\FF\FF\FF\FF\FF\FF\FF\FF\FF\FF\FF\FF\FF\FF\FF\FF\FF\FF\FF\FF\FF\FF\FF\FF\FF\FF\FF\FF\FF\FF\FF\FF\FF\FF\FF\FF\FF\FF\FF\FF\FF\FF\FF\FF\FF\FF\FF\FF\FF\FF\FF\FF\FF\FF\FF\FF\FF\FF\FF\FF\FF\FF\FF\FF\FF\FF\FF\FF\FF\FF\FF\FF\FF\FF\FF\FF\FF\FF\FF\FF\FF\FF\FF\FF\FF\FF\FF\FF\FF\FF\FF\FF\FF\FF\FF\FF\FF\FF\FF\FF\FF\FF\FF\FF\FF\FF\FF\FF\FF\FF\FF\FF\FF\FF\FF\FF\FF\FF\FF\FF\FF\FF\FF\FF\FF\FF\FF\FF\FF\FF\FF\FF\FF\FF\FF\FF\FF\FF\FF\FF\FF\FF\FF\FF\FF\FF\FF\FF\FF\FF\FF\FF\FF\FF\FF\FF\FF\FF\FF\FF\FF\FF\FF\FF\FF\FF\FF\FF\FF\FF\FF\FF\FF\FF\FF\FF\FF\FF\FF\FF\FF\FF\FF\FF\FF\FF\FF\FF\FF\FF\FF\FF\FF\FF\FF\FF\FF\FF\FF\FF\FF\FF\FF\FF\FF\FF\FF\FF\FF\FF\00", align 16
@VP8kclip1 = hidden constant ptr getelementptr (i8, ptr @clip1, i64 255), align 8
@abs0 = internal constant [511 x i8] c"\FF\FE\FD\FC\FB\FA\F9\F8\F7\F6\F5\F4\F3\F2\F1\F0\EF\EE\ED\EC\EB\EA\E9\E8\E7\E6\E5\E4\E3\E2\E1\E0\DF\DE\DD\DC\DB\DA\D9\D8\D7\D6\D5\D4\D3\D2\D1\D0\CF\CE\CD\CC\CB\CA\C9\C8\C7\C6\C5\C4\C3\C2\C1\C0\BF\BE\BD\BC\BB\BA\B9\B8\B7\B6\B5\B4\B3\B2\B1\B0\AF\AE\AD\AC\AB\AA\A9\A8\A7\A6\A5\A4\A3\A2\A1\A0\9F\9E\9D\9C\9B\9A\99\98\97\96\95\94\93\92\91\90\8F\8E\8D\8C\8B\8A\89\88\87\86\85\84\83\82\81\80\7F~}|{zyxwvutsrqponmlkjihgfedcba`_^]\\[ZYXWVUTSRQPONMLKJIHGFEDCBA@?>=<;:9876543210/.-,+*)('&%$#\22! \1F\1E\1D\1C\1B\1A\19\18\17\16\15\14\13\12\11\10\0F\0E\0D\0C\0B\0A\09\08\07\06\05\04\03\02\01\00\01\02\03\04\05\06\07\08\09\0A\0B\0C\0D\0E\0F\10\11\12\13\14\15\16\17\18\19\1A\1B\1C\1D\1E\1F !\22#$%&'()*+,-./0123456789:;<=>?@ABCDEFGHIJKLMNOPQRSTUVWXYZ[\\]^_`abcdefghijklmnopqrstuvwxyz{|}~\7F\80\81\82\83\84\85\86\87\88\89\8A\8B\8C\8D\8E\8F\90\91\92\93\94\95\96\97\98\99\9A\9B\9C\9D\9E\9F\A0\A1\A2\A3\A4\A5\A6\A7\A8\A9\AA\AB\AC\AD\AE\AF\B0\B1\B2\B3\B4\B5\B6\B7\B8\B9\BA\BB\BC\BD\BE\BF\C0\C1\C2\C3\C4\C5\C6\C7\C8\C9\CA\CB\CC\CD\CE\CF\D0\D1\D2\D3\D4\D5\D6\D7\D8\D9\DA\DB\DC\DD\DE\DF\E0\E1\E2\E3\E4\E5\E6\E7\E8\E9\EA\EB\EC\ED\EE\EF\F0\F1\F2\F3\F4\F5\F6\F7\F8\F9\FA\FB\FC\FD\FE\FF", align 16
@VP8kabs0 = hidden constant ptr getelementptr (i8, ptr @abs0, i64 255), align 8

; Function Attrs: nounwind uwtable
define hidden void @VP8InitClipTables() #0 {
  ret void
}


!llvm.module.flags = !{!0, !1, !2, !3}

!0 = !{i32 1, !"wchar_size", i32 4}
!1 = !{i32 8, !"PIC Level", i32 2}
!2 = !{i32 7, !"uwtable", i32 2}
!3 = !{i32 7, !"frame-pointer", i32 2}
